(dp1
S"'lin'"
p2
(i__main__
inf
p3
(dp4
S'phone'
p5
S'98'
p6
sS'name'
p7
g2
sS'email'
p8
S'lin@qq.com'
p9
sbsS'jing'
p10
(i__main__
inf
p11
(dp12
g5
S'9'
sg7
g10
sg8
S'ij@83c.com'
p13
sbsS'lin'
p14
(i__main__
inf
p15
(dp16
g5
S'98'
p17
sg7
S'lin'
p18
sg8
S'lin@163.com'
p19
sbs.